; Function Attrs: mustprogress uwtable
define void @_ZN32pxrInternal_v0_24__pxrReserved__16Hd_PrimTypeIndexINS_7HdBprimEE26_RenderDelegateDestroyPrimEPNS_16HdRenderDelegateEPS1_(ptr noundef %0, ptr noundef %1) local_unnamed_addr #2 align 2 {
  %.not = icmp eq ptr %1, null
  br i1 %.not, label %11, label %3

3:                                                ; preds = %2
  %4 = load ptr, ptr %0, align 8
  %5 = getelementptr inbounds i8, ptr %4, i64 48
  %6 = load ptr, ptr %5, align 8
  %7 = tail call noundef ptr %6(ptr noundef nonnull align 8 dereferenceable(104) %0)
  %8 = load ptr, ptr %1, align 8
  %9 = getelementptr inbounds i8, ptr %8, i64 24
  %10 = load ptr, ptr %9, align 8
  tail call void %10(ptr noundef nonnull align 8 dereferenceable(16) %1, ptr noundef %7)
  br label %11

11:                                               ; preds = %3, %2
  %12 = load ptr, ptr %0, align 8
  %13 = getelementptr inbounds i8, ptr %12, i64 264
  %14 = load ptr, ptr %13, align 8
  tail call void %14(ptr noundef nonnull align 8 dereferenceable(104) %0, ptr noundef %1)
  ret void
}